target datalayout = "e-m:e-p270:32:32-p271:32:32-p272:64:64-i64:64-i128:128-f80:128-n8:16:32:64-S128"
target triple = "x86_64-pc-linux-gnu"

%union.pthread_mutex_t = type { %struct.__pthread_mutex_s }
%struct.__pthread_mutex_s = type { i32, i32, i32, i32, i32, i16, i16, %struct.__pthread_internal_list }
%struct.__pthread_internal_list = type { ptr, ptr }
%union.pthread_cond_t = type { %struct.__pthread_cond_s }
%struct.__pthread_cond_s = type { %union.__atomic_wide_counter, %union.__atomic_wide_counter, [2 x i32], [2 x i32], i32, i32, [2 x i32] }
%union.__atomic_wide_counter = type { i64 }
%struct.slurm_conf_t = type { i64, ptr, i16, ptr, ptr, ptr, ptr, ptr, i16, ptr, ptr, ptr, ptr, ptr, ptr, ptr, i16, ptr, ptr, ptr, ptr, i16, ptr, ptr, ptr, i64, ptr, ptr, ptr, ptr, i16, ptr, ptr, i16, i32, ptr, i32, ptr, i32, i32, ptr, ptr, i64, i64, ptr, i16, i16, ptr, i32, i32, ptr, i32, ptr, i32, i16, i16, i16, ptr, i16, i16, ptr, ptr, i32, i16, i16, ptr, i32, i16, ptr, ptr, ptr, ptr, i16, ptr, ptr, ptr, ptr, i32, ptr, ptr, ptr, ptr, i16, i16, ptr, i32, i32, i32, i16, i16, ptr, ptr, i16, ptr, ptr, i32, i32, i32, i32, i32, i64, i32, i32, i16, ptr, ptr, i32, ptr, ptr, ptr, i16, i32, ptr, ptr, i16, ptr, ptr, i32, i16, ptr, ptr, ptr, ptr, i32, i32, i16, i16, i32, ptr, i16, ptr, i32, i32, i32, i32, i32, i32, ptr, i16, ptr, ptr, i32, i16, ptr, i32, i16, i16, ptr, ptr, ptr, i16, ptr, ptr, ptr, ptr, i16, i16, ptr, i16, ptr, i16, ptr, i16, ptr, i16, ptr, ptr, ptr, ptr, i16, ptr, ptr, ptr, i32, ptr, i32, ptr, ptr, i16, ptr, ptr, i32, i16, ptr, ptr, i16, i16, ptr, i16, ptr, ptr, ptr, i32, ptr, i16, i16, ptr, ptr, ptr, ptr, ptr, ptr, ptr, ptr, i16, i32, i16, ptr, ptr, ptr, ptr, i32, ptr, ptr, ptr, i16, ptr, ptr, ptr, i16, ptr, i16, ptr, i16, i16, ptr }
%struct.log_options_t = type { i32, i32, i32, i8, i8, i8, i32 }
%struct.slurmd_config = type { ptr, ptr, i32, [4096 x i8], ptr, ptr, ptr, ptr, i16, i16, i16, i16, ptr, i16, i64, i16, i16, i16, i16, i16, i16, i16, i16, i16, i16, i16, i64, i64, i32, i32, i16, ptr, ptr, ptr, i32, ptr, ptr, ptr, ptr, ptr, ptr, ptr, ptr, ptr, ptr, i32, ptr, ptr, i16, i32, i32, %struct.log_options_t, i32, i16, i64, i8, i8, i8, i8, i8, %union.pthread_mutex_t, i16, ptr, %union.pthread_cond_t, ptr, %union.pthread_cond_t, i8, i8, ptr, ptr }

@conf = dso_local global ptr null, align 8
@.str.45 = private unnamed_addr constant [19 x i8] c"Log file re-opened\00", align 1

; Function Attrs: nounwind uwtable
define dso_local void @update_slurmd_logging(i32 noundef %0) #0 {
  %2 = alloca i32, align 4
  %3 = alloca ptr, align 8
  %4 = alloca ptr, align 8
  %5 = alloca %struct.log_options_t, align 8
  store i32 %0, ptr %2, align 4
  call void @llvm.lifetime.start.p0(i64 8, ptr %3) #11
  %6 = load ptr, ptr @conf, align 8
  %7 = getelementptr inbounds nuw %struct.slurmd_config, ptr %6, i32 0, i32 51
  store ptr %7, ptr %3, align 8
  call void @llvm.lifetime.start.p0(i64 8, ptr %4) #11
  %8 = call ptr @slurm_conf_lock()
  store ptr %8, ptr %4, align 8
  %9 = load i32, ptr %2, align 4
  %10 = icmp ne i32 %9, 10
  br i1 %10, label %11, label %15

11:                                               ; preds = %1
  %12 = load i32, ptr %2, align 4
  %13 = load ptr, ptr @conf, align 8
  %14 = getelementptr inbounds nuw %struct.slurmd_config, ptr %13, i32 0, i32 52
  store i32 %12, ptr %14, align 8
  br label %34

15:                                               ; preds = %1
  %16 = load ptr, ptr @conf, align 8
  %17 = getelementptr inbounds nuw %struct.slurmd_config, ptr %16, i32 0, i32 53
  %18 = load i16, ptr %17, align 4
  %19 = icmp ne i16 %18, 0
  br i1 %19, label %33, label %20

20:                                               ; preds = %15
  %21 = load ptr, ptr %4, align 8
  %22 = getelementptr inbounds nuw %struct.slurm_conf_t, ptr %21, i32 0, i32 188
  %23 = load i16, ptr %22, align 8
  %24 = zext i16 %23 to i32
  %25 = icmp ne i32 %24, 65534
  br i1 %25, label %26, label %33

26:                                               ; preds = %20
  %27 = load ptr, ptr %4, align 8
  %28 = getelementptr inbounds nuw %struct.slurm_conf_t, ptr %27, i32 0, i32 188
  %29 = load i16, ptr %28, align 8
  %30 = zext i16 %29 to i32
  %31 = load ptr, ptr @conf, align 8
  %32 = getelementptr inbounds nuw %struct.slurmd_config, ptr %31, i32 0, i32 52
  store i32 %30, ptr %32, align 8
  br label %33

33:                                               ; preds = %26, %20, %15
  br label %34

34:                                               ; preds = %33, %11
  %35 = load ptr, ptr %4, align 8
  %36 = getelementptr inbounds nuw %struct.slurm_conf_t, ptr %35, i32 0, i32 194
  %37 = load i16, ptr %36, align 8
  %38 = zext i16 %37 to i32
  %39 = load ptr, ptr @conf, align 8
  %40 = getelementptr inbounds nuw %struct.slurmd_config, ptr %39, i32 0, i32 45
  store i32 %38, ptr %40, align 8
  call void @slurm_conf_unlock()
  %41 = load ptr, ptr @conf, align 8
  %42 = getelementptr inbounds nuw %struct.slurmd_config, ptr %41, i32 0, i32 52
  %43 = load i32, ptr %42, align 8
  %44 = load ptr, ptr %3, align 8
  %45 = getelementptr inbounds nuw %struct.log_options_t, ptr %44, i32 0, i32 2
  store i32 %43, ptr %45, align 4
  %46 = load ptr, ptr @conf, align 8
  %47 = getelementptr inbounds nuw %struct.slurmd_config, ptr %46, i32 0, i32 55
  %48 = load i8, ptr %47, align 8, !range !8, !noundef !9
  %49 = trunc i8 %48 to i1
  br i1 %49, label %50, label %53

50:                                               ; preds = %34
  %51 = load ptr, ptr %3, align 8
  %52 = getelementptr inbounds nuw %struct.log_options_t, ptr %51, i32 0, i32 0
  store i32 0, ptr %52, align 4
  br label %59

53:                                               ; preds = %34
  %54 = load ptr, ptr @conf, align 8
  %55 = getelementptr inbounds nuw %struct.slurmd_config, ptr %54, i32 0, i32 52
  %56 = load i32, ptr %55, align 8
  %57 = load ptr, ptr %3, align 8
  %58 = getelementptr inbounds nuw %struct.log_options_t, ptr %57, i32 0, i32 0
  store i32 %56, ptr %58, align 4
  br label %59

59:                                               ; preds = %53, %50
  %60 = load ptr, ptr @conf, align 8
  %61 = getelementptr inbounds nuw %struct.slurmd_config, ptr %60, i32 0, i32 45
  %62 = load i32, ptr %61, align 8
  %63 = icmp ne i32 %62, 10
  br i1 %63, label %64, label %70

64:                                               ; preds = %59
  %65 = load ptr, ptr @conf, align 8
  %66 = getelementptr inbounds nuw %struct.slurmd_config, ptr %65, i32 0, i32 45
  %67 = load i32, ptr %66, align 8
  %68 = load ptr, ptr %3, align 8
  %69 = getelementptr inbounds nuw %struct.log_options_t, ptr %68, i32 0, i32 1
  store i32 %67, ptr %69, align 4
  br label %99

70:                                               ; preds = %59
  %71 = load ptr, ptr @conf, align 8
  %72 = getelementptr inbounds nuw %struct.slurmd_config, ptr %71, i32 0, i32 55
  %73 = load i8, ptr %72, align 8, !range !8, !noundef !9
  %74 = trunc i8 %73 to i1
  br i1 %74, label %78, label %75

75:                                               ; preds = %70
  %76 = load ptr, ptr %3, align 8
  %77 = getelementptr inbounds nuw %struct.log_options_t, ptr %76, i32 0, i32 1
  store i32 0, ptr %77, align 4
  br label %98

78:                                               ; preds = %70
  %79 = load ptr, ptr @conf, align 8
  %80 = getelementptr inbounds nuw %struct.slurmd_config, ptr %79, i32 0, i32 52
  %81 = load i32, ptr %80, align 8
  %82 = icmp ugt i32 %81, 0
  br i1 %82, label %83, label %94

83:                                               ; preds = %78
  %84 = load ptr, ptr @conf, align 8
  %85 = getelementptr inbounds nuw %struct.slurmd_config, ptr %84, i32 0, i32 42
  %86 = load ptr, ptr %85, align 8
  %87 = icmp ne ptr %86, null
  br i1 %87, label %94, label %88

88:                                               ; preds = %83
  %89 = load ptr, ptr @conf, align 8
  %90 = getelementptr inbounds nuw %struct.slurmd_config, ptr %89, i32 0, i32 52
  %91 = load i32, ptr %90, align 8
  %92 = load ptr, ptr %3, align 8
  %93 = getelementptr inbounds nuw %struct.log_options_t, ptr %92, i32 0, i32 1
  store i32 %91, ptr %93, align 4
  br label %97

94:                                               ; preds = %83, %78
  %95 = load ptr, ptr %3, align 8
  %96 = getelementptr inbounds nuw %struct.log_options_t, ptr %95, i32 0, i32 1
  store i32 1, ptr %96, align 4
  br label %97

97:                                               ; preds = %94, %88
  br label %98

98:                                               ; preds = %97, %75
  br label %99

99:                                               ; preds = %98, %64
  %100 = load ptr, ptr @conf, align 8
  %101 = getelementptr inbounds nuw %struct.slurmd_config, ptr %100, i32 0, i32 51
  %102 = load ptr, ptr @conf, align 8
  %103 = getelementptr inbounds nuw %struct.slurmd_config, ptr %102, i32 0, i32 42
  %104 = load ptr, ptr %103, align 8
  call void @llvm.lifetime.start.p0(i64 20, ptr %5) #11
  call void @llvm.memcpy.p0.p0.i64(ptr align 8 %5, ptr align 4 %101, i64 20, i1 false)
  %105 = call i32 @log_alter(ptr noundef byval(%struct.log_options_t) align 8 %5, i32 noundef 24, ptr noundef %104)
  call void @llvm.lifetime.end.p0(i64 20, ptr %5) #11
  %106 = load ptr, ptr %4, align 8
  %107 = getelementptr inbounds nuw %struct.slurm_conf_t, ptr %106, i32 0, i32 92
  %108 = load i16, ptr %107, align 8
  %109 = zext i16 %108 to i32
  call void @log_set_timefmt(i32 noundef %109)
  br label %110

110:                                              ; preds = %99
  br label %111

111:                                              ; preds = %110
  %112 = call i32 @get_log_level()
  %113 = icmp sge i32 %112, 5
  br i1 %113, label %114, label %115

114:                                              ; preds = %111
  call void (i32, ptr, ...) @log_var(i32 noundef 5, ptr noundef @.str.45)
  br label %115

115:                                              ; preds = %114, %111
  br label %116

116:                                              ; preds = %115
  br label %117

117:                                              ; preds = %116
  br label %118

118:                                              ; preds = %117
  br label %119

119:                                              ; preds = %118
  call void @llvm.lifetime.end.p0(i64 8, ptr %4) #11
  call void @llvm.lifetime.end.p0(i64 8, ptr %3) #11
  ret void
}