; Function Attrs: nounwind uwtable
define dso_local void @update_slurmd_logging(i32 noundef %0) local_unnamed_addr #0 {
  %2 = alloca %struct.log_options_t, align 8
  %3 = load ptr, ptr @conf, align 8
  %4 = getelementptr inbounds nuw i8, ptr %3, i64 4388
  %5 = tail call ptr @slurm_conf_lock() #18
  %.not = icmp eq i32 %0, 10
  %6 = load ptr, ptr @conf, align 8
  br i1 %.not, label %7, label %.sink.split

7:                                                ; preds = %1
  %8 = getelementptr inbounds nuw i8, ptr %6, i64 4412
  %9 = load i16, ptr %8, align 4
  %.not15 = icmp eq i16 %9, 0
  br i1 %.not15, label %10, label %16

10:                                               ; preds = %7
  %11 = getelementptr inbounds nuw i8, ptr %5, i64 1256
  %12 = load i16, ptr %11, align 8
  %.not16 = icmp eq i16 %12, -2
  br i1 %.not16, label %16, label %13

13:                                               ; preds = %10
  %14 = zext i16 %12 to i32
  br label %.sink.split

.sink.split:                                      ; preds = %1, %13
  %.sink = phi i32 [ %14, %13 ], [ %0, %1 ]
  %15 = getelementptr inbounds nuw i8, ptr %6, i64 4408
  store i32 %.sink, ptr %15, align 8
  br label %16

16:                                               ; preds = %.sink.split, %7, %10
  %17 = getelementptr inbounds nuw i8, ptr %5, i64 1304
  %18 = load i16, ptr %17, align 8
  %19 = zext i16 %18 to i32
  %20 = getelementptr inbounds nuw i8, ptr %6, i64 4352
  store i32 %19, ptr %20, align 8
  tail call void @slurm_conf_unlock() #18
  %21 = load ptr, ptr @conf, align 8
  %22 = getelementptr inbounds nuw i8, ptr %21, i64 4408
  %23 = load i32, ptr %22, align 8
  %24 = getelementptr inbounds nuw i8, ptr %3, i64 4396
  store i32 %23, ptr %24, align 4
  %25 = getelementptr inbounds nuw i8, ptr %21, i64 4424
  %26 = load i8, ptr %25, align 8, !range !11, !noundef !12
  %27 = trunc nuw i8 %26 to i1
  %storemerge = select i1 %27, i32 0, i32 %23
  store i32 %storemerge, ptr %4, align 4
  %28 = getelementptr inbounds nuw i8, ptr %21, i64 4352
  %29 = load i32, ptr %28, align 8
  %.not17 = icmp eq i32 %29, 10
  br i1 %.not17, label %30, label %39

30:                                               ; preds = %16
  %31 = load i8, ptr %25, align 8, !range !11, !noundef !12
  %32 = trunc nuw i8 %31 to i1
  br i1 %32, label %33, label %39

33:                                               ; preds = %30
  %34 = load i32, ptr %22, align 8
  %.not18 = icmp eq i32 %34, 0
  br i1 %.not18, label %38, label %35

35:                                               ; preds = %33
  %36 = getelementptr inbounds nuw i8, ptr %21, i64 4328
  %37 = load ptr, ptr %36, align 8
  %.not19 = icmp eq ptr %37, null
  br i1 %.not19, label %39, label %38

38:                                               ; preds = %35, %33
  br label %39

39:                                               ; preds = %35, %30, %16, %38
  %.sink21 = phi i32 [ 1, %38 ], [ %29, %16 ], [ 0, %30 ], [ %34, %35 ]
  %40 = getelementptr inbounds nuw i8, ptr %3, i64 4392
  store i32 %.sink21, ptr %40, align 4
  %41 = getelementptr inbounds nuw i8, ptr %21, i64 4388
  %42 = getelementptr inbounds nuw i8, ptr %21, i64 4328
  %43 = load ptr, ptr %42, align 8
  call void @llvm.lifetime.start.p0(i64 20, ptr nonnull %2) #18
  call void @llvm.memcpy.p0.p0.i64(ptr noundef nonnull align 8 dereferenceable(20) %2, ptr noundef nonnull align 4 dereferenceable(20) %41, i64 20, i1 false)
  %44 = tail call i32 @log_alter(ptr noundef nonnull byval(%struct.log_options_t) align 8 %2, i32 noundef 24, ptr noundef %43) #18
  call void @llvm.lifetime.end.p0(i64 20, ptr nonnull %2) #18
  %45 = getelementptr inbounds nuw i8, ptr %5, i64 624
  %46 = load i16, ptr %45, align 8
  %47 = zext i16 %46 to i32
  tail call void @log_set_timefmt(i32 noundef %47) #18
  %48 = tail call i32 @get_log_level() #18
  %49 = icmp sgt i32 %48, 4
  br i1 %49, label %50, label %51

50:                                               ; preds = %39
  tail call void (i32, ptr, ...) @log_var(i32 noundef 5, ptr noundef nonnull @.str.45) #18
  br label %51

51:                                               ; preds = %50, %39
  ret void
}